target datalayout = "e-m:e-p270:32:32-p271:32:32-p272:64:64-i64:64-i128:128-f80:128-n8:16:32:64-S128"
target triple = "x86_64-pc-linux-gnu"

%struct.lv_pinyin_dict_t = type { ptr, ptr }
%struct.lv_ll_t = type { i32, ptr, ptr }
%struct._lv_ime_pinyin_t = type { %struct._lv_obj_t, ptr, ptr, ptr, %struct.lv_ll_t, ptr, [16 x i8], [8 x i8], i16, i16, i16, i16, i16, i16, [26 x i16], [26 x i16], i32 }
%struct._lv_obj_t = type { ptr, ptr, ptr, ptr, ptr, %struct.lv_area_t, i32, i16, i16 }
%struct.lv_area_t = type { i32, i32, i32, i32 }

@lv_pinyin_cand_str = internal global [6 x [4 x i8]] zeroinitializer, align 16

; Function Attrs: nounwind uwtable
define internal ptr @pinyin_search_matching(ptr noundef %0, ptr noundef %1, ptr noundef %2) #0 {
  %4 = alloca ptr, align 8
  %5 = alloca ptr, align 8
  %6 = alloca ptr, align 8
  %7 = alloca ptr, align 8
  %8 = alloca ptr, align 8
  %9 = alloca ptr, align 8
  %10 = alloca i8, align 1
  %11 = alloca i8, align 1
  %12 = alloca i8, align 1
  %13 = alloca i8, align 1
  %14 = alloca i32, align 4
  store ptr %0, ptr %5, align 8, !tbaa !8
  store ptr %1, ptr %6, align 8, !tbaa !14
  store ptr %2, ptr %7, align 8, !tbaa !90
  call void @llvm.lifetime.start.p0(i64 8, ptr %8) #6
  %15 = load ptr, ptr %5, align 8, !tbaa !8
  store ptr %15, ptr %8, align 8, !tbaa !10
  call void @llvm.lifetime.start.p0(i64 8, ptr %9) #6
  call void @llvm.lifetime.start.p0(i64 1, ptr %10) #6
  call void @llvm.lifetime.start.p0(i64 1, ptr %11) #6
  store i8 0, ptr %11, align 1, !tbaa !16
  call void @llvm.lifetime.start.p0(i64 1, ptr %12) #6
  call void @llvm.lifetime.start.p0(i64 1, ptr %13) #6
  store volatile i8 0, ptr %13, align 1, !tbaa !16
  %16 = load ptr, ptr %6, align 8, !tbaa !14
  %17 = load i8, ptr %16, align 1, !tbaa !16
  %18 = sext i8 %17 to i32
  %19 = icmp eq i32 %18, 0
  br i1 %19, label %20, label %21

20:                                               ; preds = %3
  store ptr null, ptr %4, align 8
  store i32 1, ptr %14, align 4
  br label %132

21:                                               ; preds = %3
  %22 = load ptr, ptr %6, align 8, !tbaa !14
  %23 = load i8, ptr %22, align 1, !tbaa !16
  %24 = sext i8 %23 to i32
  %25 = icmp eq i32 %24, 105
  br i1 %25, label %26, label %27

26:                                               ; preds = %21
  store ptr null, ptr %4, align 8
  store i32 1, ptr %14, align 4
  br label %132

27:                                               ; preds = %21
  %28 = load ptr, ptr %6, align 8, !tbaa !14
  %29 = load i8, ptr %28, align 1, !tbaa !16
  %30 = sext i8 %29 to i32
  %31 = icmp eq i32 %30, 117
  br i1 %31, label %32, label %33

32:                                               ; preds = %27
  store ptr null, ptr %4, align 8
  store i32 1, ptr %14, align 4
  br label %132

33:                                               ; preds = %27
  %34 = load ptr, ptr %6, align 8, !tbaa !14
  %35 = load i8, ptr %34, align 1, !tbaa !16
  %36 = sext i8 %35 to i32
  %37 = icmp eq i32 %36, 118
  br i1 %37, label %38, label %39

38:                                               ; preds = %33
  store ptr null, ptr %4, align 8
  store i32 1, ptr %14, align 4
  br label %132

39:                                               ; preds = %33
  %40 = load ptr, ptr %6, align 8, !tbaa !14
  %41 = load i8, ptr %40, align 1, !tbaa !16
  %42 = sext i8 %41 to i32
  %43 = icmp eq i32 %42, 32
  br i1 %43, label %44, label %45

44:                                               ; preds = %39
  store ptr null, ptr %4, align 8
  store i32 1, ptr %14, align 4
  br label %132

45:                                               ; preds = %39
  %46 = load ptr, ptr %6, align 8, !tbaa !14
  %47 = getelementptr inbounds i8, ptr %46, i64 0
  %48 = load i8, ptr %47, align 1, !tbaa !16
  %49 = sext i8 %48 to i32
  %50 = sub nsw i32 %49, 97
  %51 = trunc i32 %50 to i8
  store i8 %51, ptr %12, align 1, !tbaa !16
  %52 = load ptr, ptr %6, align 8, !tbaa !14
  %53 = call i64 @lv_strlen(ptr noundef %52)
  %54 = trunc i64 %53 to i8
  store i8 %54, ptr %11, align 1, !tbaa !16
  %55 = load ptr, ptr %8, align 8, !tbaa !10
  %56 = getelementptr inbounds nuw %struct._lv_ime_pinyin_t, ptr %55, i32 0, i32 3
  %57 = load ptr, ptr %56, align 8, !tbaa !42
  %58 = load ptr, ptr %8, align 8, !tbaa !10
  %59 = getelementptr inbounds nuw %struct._lv_ime_pinyin_t, ptr %58, i32 0, i32 15
  %60 = load i8, ptr %12, align 1, !tbaa !16
  %61 = zext i8 %60 to i64
  %62 = getelementptr inbounds nuw [26 x i16], ptr %59, i64 0, i64 %61
  %63 = load i16, ptr %62, align 2, !tbaa !12
  %64 = zext i16 %63 to i64
  %65 = getelementptr inbounds nuw %struct.lv_pinyin_dict_t, ptr %57, i64 %64
  store ptr %65, ptr %9, align 8, !tbaa !41
  %66 = load ptr, ptr %8, align 8, !tbaa !10
  %67 = getelementptr inbounds nuw %struct._lv_ime_pinyin_t, ptr %66, i32 0, i32 14
  %68 = load i8, ptr %12, align 1, !tbaa !16
  %69 = zext i8 %68 to i64
  %70 = getelementptr inbounds nuw [26 x i16], ptr %67, i64 0, i64 %69
  %71 = load i16, ptr %70, align 2, !tbaa !12
  %72 = trunc i16 %71 to i8
  store volatile i8 %72, ptr %13, align 1, !tbaa !16
  br label %73

73:                                               ; preds = %128, %45
  %74 = load volatile i8, ptr %13, align 1, !tbaa !16
  %75 = add i8 %74, -1
  store volatile i8 %75, ptr %13, align 1, !tbaa !16
  %76 = icmp ne i8 %74, 0
  br i1 %76, label %77, label %131

77:                                               ; preds = %73
  store i8 0, ptr %10, align 1, !tbaa !16
  br label %78

78:                                               ; preds = %104, %77
  %79 = load i8, ptr %10, align 1, !tbaa !16
  %80 = zext i8 %79 to i32
  %81 = load i8, ptr %11, align 1, !tbaa !16
  %82 = zext i8 %81 to i32
  %83 = icmp slt i32 %80, %82
  br i1 %83, label %84, label %107

84:                                               ; preds = %78
  %85 = load ptr, ptr %6, align 8, !tbaa !14
  %86 = load i8, ptr %10, align 1, !tbaa !16
  %87 = zext i8 %86 to i32
  %88 = sext i32 %87 to i64
  %89 = getelementptr inbounds i8, ptr %85, i64 %88
  %90 = load i8, ptr %89, align 1, !tbaa !16
  %91 = sext i8 %90 to i32
  %92 = load ptr, ptr %9, align 8, !tbaa !41
  %93 = getelementptr inbounds nuw %struct.lv_pinyin_dict_t, ptr %92, i32 0, i32 0
  %94 = load ptr, ptr %93, align 8, !tbaa !43
  %95 = load i8, ptr %10, align 1, !tbaa !16
  %96 = zext i8 %95 to i32
  %97 = sext i32 %96 to i64
  %98 = getelementptr inbounds i8, ptr %94, i64 %97
  %99 = load i8, ptr %98, align 1, !tbaa !16
  %100 = sext i8 %99 to i32
  %101 = icmp ne i32 %91, %100
  br i1 %101, label %102, label %103

102:                                              ; preds = %84
  br label %107

103:                                              ; preds = %84
  br label %104

104:                                              ; preds = %103
  %105 = load i8, ptr %10, align 1, !tbaa !16
  %106 = add i8 %105, 1
  store i8 %106, ptr %10, align 1, !tbaa !16
  br label %78, !llvm.loop !92

107:                                              ; preds = %102, %78
  %108 = load i8, ptr %11, align 1, !tbaa !16
  %109 = zext i8 %108 to i32
  %110 = icmp eq i32 %109, 1
  br i1 %110, label %117, label %111

111:                                              ; preds = %107
  %112 = load i8, ptr %10, align 1, !tbaa !16
  %113 = zext i8 %112 to i32
  %114 = load i8, ptr %11, align 1, !tbaa !16
  %115 = zext i8 %114 to i32
  %116 = icmp eq i32 %113, %115
  br i1 %116, label %117, label %128

117:                                              ; preds = %111, %107
  %118 = load ptr, ptr %9, align 8, !tbaa !41
  %119 = getelementptr inbounds nuw %struct.lv_pinyin_dict_t, ptr %118, i32 0, i32 1
  %120 = load ptr, ptr %119, align 8, !tbaa !45
  %121 = call i64 @lv_strlen(ptr noundef %120)
  %122 = udiv i64 %121, 3
  %123 = trunc i64 %122 to i16
  %124 = load ptr, ptr %7, align 8, !tbaa !90
  store i16 %123, ptr %124, align 2, !tbaa !12
  %125 = load ptr, ptr %9, align 8, !tbaa !41
  %126 = getelementptr inbounds nuw %struct.lv_pinyin_dict_t, ptr %125, i32 0, i32 1
  %127 = load ptr, ptr %126, align 8, !tbaa !45
  store ptr %127, ptr %4, align 8
  store i32 1, ptr %14, align 4
  br label %132

128:                                              ; preds = %111
  %129 = load ptr, ptr %9, align 8, !tbaa !41
  %130 = getelementptr inbounds nuw %struct.lv_pinyin_dict_t, ptr %129, i32 1
  store ptr %130, ptr %9, align 8, !tbaa !41
  br label %73, !llvm.loop !93

131:                                              ; preds = %73
  store ptr null, ptr %4, align 8
  store i32 1, ptr %14, align 4
  br label %132

132:                                              ; preds = %131, %117, %44, %38, %32, %26, %20
  call void @llvm.lifetime.end.p0(i64 1, ptr %13) #6
  call void @llvm.lifetime.end.p0(i64 1, ptr %12) #6
  call void @llvm.lifetime.end.p0(i64 1, ptr %11) #6
  call void @llvm.lifetime.end.p0(i64 1, ptr %10) #6
  call void @llvm.lifetime.end.p0(i64 8, ptr %9) #6
  call void @llvm.lifetime.end.p0(i64 8, ptr %8) #6
  %133 = load ptr, ptr %4, align 8
  ret ptr %133
}

; Function Attrs: nounwind uwtable
define internal void @pinyin_input_proc(ptr noundef %0) #0 {
  %2 = alloca ptr, align 8
  %3 = alloca ptr, align 8
  %4 = alloca i32, align 4
  %5 = alloca i8, align 1
  %6 = alloca i8, align 1
  %7 = alloca i8, align 1
  store ptr %0, ptr %2, align 8, !tbaa !8
  call void @llvm.lifetime.start.p0(i64 8, ptr %3) #6
  %8 = load ptr, ptr %2, align 8, !tbaa !8
  store ptr %8, ptr %3, align 8, !tbaa !10
  %9 = load ptr, ptr %2, align 8, !tbaa !8
  %10 = load ptr, ptr %3, align 8, !tbaa !10
  %11 = getelementptr inbounds nuw %struct._lv_ime_pinyin_t, ptr %10, i32 0, i32 6
  %12 = getelementptr inbounds [16 x i8], ptr %11, i64 0, i64 0
  %13 = load ptr, ptr %3, align 8, !tbaa !10
  %14 = getelementptr inbounds nuw %struct._lv_ime_pinyin_t, ptr %13, i32 0, i32 12
  %15 = call ptr @pinyin_search_matching(ptr noundef %9, ptr noundef %12, ptr noundef %14)
  %16 = load ptr, ptr %3, align 8, !tbaa !10
  %17 = getelementptr inbounds nuw %struct._lv_ime_pinyin_t, ptr %16, i32 0, i32 5
  store ptr %15, ptr %17, align 8, !tbaa !52
  %18 = load ptr, ptr %3, align 8, !tbaa !10
  %19 = getelementptr inbounds nuw %struct._lv_ime_pinyin_t, ptr %18, i32 0, i32 5
  %20 = load ptr, ptr %19, align 8, !tbaa !52
  %21 = icmp eq ptr %20, null
  br i1 %21, label %22, label %23

22:                                               ; preds = %1
  store i32 1, ptr %4, align 4
  br label %95

23:                                               ; preds = %1
  %24 = load ptr, ptr %3, align 8, !tbaa !10
  %25 = getelementptr inbounds nuw %struct._lv_ime_pinyin_t, ptr %24, i32 0, i32 13
  store i16 0, ptr %25, align 2, !tbaa !27
  call void @llvm.lifetime.start.p0(i64 1, ptr %5) #6
  store i8 0, ptr %5, align 1, !tbaa !16
  br label %26

26:                                               ; preds = %40, %23
  %27 = load i8, ptr %5, align 1, !tbaa !16
  %28 = zext i8 %27 to i32
  %29 = icmp slt i32 %28, 6
  br i1 %29, label %31, label %30

30:                                               ; preds = %26
  store i32 2, ptr %4, align 4
  call void @llvm.lifetime.end.p0(i64 1, ptr %5) #6
  br label %43

31:                                               ; preds = %26
  %32 = load i8, ptr %5, align 1, !tbaa !16
  %33 = zext i8 %32 to i64
  %34 = getelementptr inbounds nuw [6 x [4 x i8]], ptr @lv_pinyin_cand_str, i64 0, i64 %33
  %35 = getelementptr inbounds [4 x i8], ptr %34, i64 0, i64 0
  call void @lv_memset(ptr noundef %35, i8 noundef zeroext 0, i64 noundef 4)
  %36 = load i8, ptr %5, align 1, !tbaa !16
  %37 = zext i8 %36 to i64
  %38 = getelementptr inbounds nuw [6 x [4 x i8]], ptr @lv_pinyin_cand_str, i64 0, i64 %37
  %39 = getelementptr inbounds [4 x i8], ptr %38, i64 0, i64 0
  store i8 32, ptr %39, align 4, !tbaa !16
  br label %40

40:                                               ; preds = %31
  %41 = load i8, ptr %5, align 1, !tbaa !16
  %42 = add i8 %41, 1
  store i8 %42, ptr %5, align 1, !tbaa !16
  br label %26, !llvm.loop !58

43:                                               ; preds = %30
  call void @llvm.lifetime.start.p0(i64 1, ptr %6) #6
  store i8 0, ptr %6, align 1, !tbaa !16
  br label %44

44:                                               ; preds = %88, %43
  %45 = load i8, ptr %6, align 1, !tbaa !16
  %46 = zext i8 %45 to i32
  %47 = load ptr, ptr %3, align 8, !tbaa !10
  %48 = getelementptr inbounds nuw %struct._lv_ime_pinyin_t, ptr %47, i32 0, i32 12
  %49 = load i16, ptr %48, align 8, !tbaa !29
  %50 = zext i16 %49 to i32
  %51 = icmp slt i32 %46, %50
  br i1 %51, label %52, label %56

52:                                               ; preds = %44
  %53 = load i8, ptr %6, align 1, !tbaa !16
  %54 = zext i8 %53 to i32
  %55 = icmp slt i32 %54, 6
  br label %56

56:                                               ; preds = %52, %44
  %57 = phi i1 [ false, %44 ], [ %55, %52 ]
  br i1 %57, label %59, label %58

58:                                               ; preds = %56
  store i32 5, ptr %4, align 4
  call void @llvm.lifetime.end.p0(i64 1, ptr %6) #6
  br label %91

59:                                               ; preds = %56
  call void @llvm.lifetime.start.p0(i64 1, ptr %7) #6
  store i8 0, ptr %7, align 1, !tbaa !16
  br label %60

60:                                               ; preds = %84, %59
  %61 = load i8, ptr %7, align 1, !tbaa !16
  %62 = zext i8 %61 to i32
  %63 = icmp slt i32 %62, 3
  br i1 %63, label %65, label %64

64:                                               ; preds = %60
  store i32 8, ptr %4, align 4
  call void @llvm.lifetime.end.p0(i64 1, ptr %7) #6
  br label %87

65:                                               ; preds = %60
  %66 = load ptr, ptr %3, align 8, !tbaa !10
  %67 = getelementptr inbounds nuw %struct._lv_ime_pinyin_t, ptr %66, i32 0, i32 5
  %68 = load ptr, ptr %67, align 8, !tbaa !52
  %69 = load i8, ptr %6, align 1, !tbaa !16
  %70 = zext i8 %69 to i32
  %71 = mul nsw i32 %70, 3
  %72 = load i8, ptr %7, align 1, !tbaa !16
  %73 = zext i8 %72 to i32
  %74 = add nsw i32 %71, %73
  %75 = sext i32 %74 to i64
  %76 = getelementptr inbounds i8, ptr %68, i64 %75
  %77 = load i8, ptr %76, align 1, !tbaa !16
  %78 = load i8, ptr %6, align 1, !tbaa !16
  %79 = zext i8 %78 to i64
  %80 = getelementptr inbounds nuw [6 x [4 x i8]], ptr @lv_pinyin_cand_str, i64 0, i64 %79
  %81 = load i8, ptr %7, align 1, !tbaa !16
  %82 = zext i8 %81 to i64
  %83 = getelementptr inbounds nuw [4 x i8], ptr %80, i64 0, i64 %82
  store i8 %77, ptr %83, align 1, !tbaa !16
  br label %84

84:                                               ; preds = %65
  %85 = load i8, ptr %7, align 1, !tbaa !16
  %86 = add i8 %85, 1
  store i8 %86, ptr %7, align 1, !tbaa !16
  br label %60, !llvm.loop !59

87:                                               ; preds = %64
  br label %88

88:                                               ; preds = %87
  %89 = load i8, ptr %6, align 1, !tbaa !16
  %90 = add i8 %89, 1
  store i8 %90, ptr %6, align 1, !tbaa !16
  br label %44, !llvm.loop !60

91:                                               ; preds = %58
  %92 = load ptr, ptr %3, align 8, !tbaa !10
  %93 = getelementptr inbounds nuw %struct._lv_ime_pinyin_t, ptr %92, i32 0, i32 2
  %94 = load ptr, ptr %93, align 8, !tbaa !30
  call void @lv_obj_remove_flag(ptr noundef %94, i32 noundef 1)
  store i32 0, ptr %4, align 4
  br label %95

95:                                               ; preds = %91, %22
  call void @llvm.lifetime.end.p0(i64 8, ptr %3) #6
  %96 = load i32, ptr %4, align 4
  switch i32 %96, label %98 [
    i32 0, label %97
    i32 1, label %97
  ]

97:                                               ; preds = %95, %95
  ret void

98:                                               ; preds = %95
  unreachable
}