; Function Attrs: nounwind uwtable
define internal fastcc void @pinyin_input_proc(ptr noundef %0) unnamed_addr #0 {
  %2 = alloca i8, align 1
  %3 = getelementptr inbounds nuw i8, ptr %0, i64 120
  %4 = getelementptr inbounds nuw i8, ptr %0, i64 152
  call void @llvm.lifetime.start.p0(i64 1, ptr nonnull %2)
  store volatile i8 0, ptr %2, align 1, !tbaa !8
  %5 = load i8, ptr %3, align 1, !tbaa !8
  switch i8 %5, label %6 [
    i8 0, label %pinyin_search_matching.exit.thread
    i8 105, label %pinyin_search_matching.exit.thread
    i8 117, label %pinyin_search_matching.exit.thread
    i8 118, label %pinyin_search_matching.exit.thread
    i8 32, label %pinyin_search_matching.exit.thread
  ]

6:                                                ; preds = %1
  %7 = add i8 %5, -97
  %8 = tail call i64 @lv_strlen(ptr noundef nonnull %3) #6
  %9 = getelementptr inbounds nuw i8, ptr %0, i64 80
  %10 = load ptr, ptr %9, align 8, !tbaa !25
  %11 = getelementptr inbounds nuw i8, ptr %0, i64 208
  %12 = zext i8 %7 to i64
  %13 = getelementptr inbounds nuw [26 x i16], ptr %11, i64 0, i64 %12
  %14 = load i16, ptr %13, align 2, !tbaa !28
  %15 = zext i16 %14 to i64
  %16 = getelementptr inbounds nuw %struct.lv_pinyin_dict_t, ptr %10, i64 %15
  %17 = getelementptr inbounds nuw i8, ptr %0, i64 156
  %18 = getelementptr inbounds nuw [26 x i16], ptr %17, i64 0, i64 %12
  %19 = load i16, ptr %18, align 2, !tbaa !28
  %20 = trunc i16 %19 to i8
  store volatile i8 %20, ptr %2, align 1, !tbaa !8
  %.0..0..0..0..0..0.41.i = load volatile i8, ptr %2, align 1, !tbaa !8
  %21 = add i8 %.0..0..0..0..0..0.41.i, -1
  store volatile i8 %21, ptr %2, align 1, !tbaa !8
  %.not42.i = icmp eq i8 %.0..0..0..0..0..0.41.i, 0
  br i1 %.not42.i, label %pinyin_search_matching.exit.thread, label %.preheader.lr.ph.i

.preheader.lr.ph.i:                               ; preds = %6
  %.fr52.i = freeze i64 %8
  %22 = trunc i64 %.fr52.i to i32
  %23 = and i32 %22, 255
  %.not.i = icmp eq i32 %23, 0
  br i1 %.not.i, label %pinyin_search_matching.exit, label %.preheader.lr.ph.split.us.i

.preheader.lr.ph.split.us.i:                      ; preds = %.preheader.lr.ph.i
  %24 = icmp eq i32 %23, 1
  %25 = load i8, ptr %3, align 1, !tbaa !8
  br i1 %24, label %pinyin_search_matching.exit, label %.preheader.us.preheader.i

.preheader.us.preheader.i:                        ; preds = %.preheader.lr.ph.split.us.i
  %wide.trip.count = and i64 %.fr52.i, 255
  br label %.preheader.us.i

.preheader.us.i:                                  ; preds = %35, %.preheader.us.preheader.i
  %.02943.us.i = phi ptr [ %36, %35 ], [ %16, %.preheader.us.preheader.i ]
  %26 = load ptr, ptr %.02943.us.i, align 8, !tbaa !29
  %27 = load i8, ptr %26, align 1, !tbaa !8
  %.not33.us48.i = icmp eq i8 %25, %27
  br i1 %.not33.us48.i, label %.lr.ph.i, label %._crit_edge.us.i

.lr.ph.i:                                         ; preds = %.preheader.us.i, %28
  %indvars.iv = phi i64 [ %indvars.iv.next, %28 ], [ 1, %.preheader.us.i ]
  %exitcond.not = icmp eq i64 %indvars.iv, %wide.trip.count
  br i1 %exitcond.not, label %._crit_edge.us.loopexit.i, label %28, !llvm.loop !47

28:                                               ; preds = %.lr.ph.i
  %29 = getelementptr inbounds nuw i8, ptr %3, i64 %indvars.iv
  %30 = load i8, ptr %29, align 1, !tbaa !8
  %31 = getelementptr inbounds nuw i8, ptr %26, i64 %indvars.iv
  %32 = load i8, ptr %31, align 1, !tbaa !8
  %.not33.us.i = icmp eq i8 %30, %32
  %indvars.iv.next = add nuw nsw i64 %indvars.iv, 1
  br i1 %.not33.us.i, label %.lr.ph.i, label %._crit_edge.us.loopexit.i, !llvm.loop !47

._crit_edge.us.loopexit.i:                        ; preds = %28, %.lr.ph.i
  %.lcssa.in = phi i64 [ %indvars.iv, %28 ], [ %.fr52.i, %.lr.ph.i ]
  %.lcssa = trunc i64 %.lcssa.in to i32
  %33 = and i32 %.lcssa, 255
  br label %._crit_edge.us.i

._crit_edge.us.i:                                 ; preds = %._crit_edge.us.loopexit.i, %.preheader.us.i
  %.lcssa34.us.i = phi i32 [ 0, %.preheader.us.i ], [ %33, %._crit_edge.us.loopexit.i ]
  %34 = icmp eq i32 %23, %.lcssa34.us.i
  br i1 %34, label %pinyin_search_matching.exit, label %35

35:                                               ; preds = %._crit_edge.us.i
  %36 = getelementptr inbounds nuw i8, ptr %.02943.us.i, i64 16
  %.0..0..0..0..0..0..us.i = load volatile i8, ptr %2, align 1, !tbaa !8
  %37 = add i8 %.0..0..0..0..0..0..us.i, -1
  store volatile i8 %37, ptr %2, align 1, !tbaa !8
  %.not.us.i = icmp eq i8 %.0..0..0..0..0..0..us.i, 0
  br i1 %.not.us.i, label %pinyin_search_matching.exit.thread, label %.preheader.us.i, !llvm.loop !48

pinyin_search_matching.exit.thread:               ; preds = %35, %1, %1, %1, %1, %1, %6
  call void @llvm.lifetime.end.p0(i64 1, ptr nonnull %2)
  %38 = getelementptr inbounds nuw i8, ptr %0, i64 112
  store ptr null, ptr %38, align 8, !tbaa !41
  br label %67

pinyin_search_matching.exit:                      ; preds = %._crit_edge.us.i, %.preheader.lr.ph.i, %.preheader.lr.ph.split.us.i
  %.us-phi.i = phi ptr [ %16, %.preheader.lr.ph.i ], [ %16, %.preheader.lr.ph.split.us.i ], [ %.02943.us.i, %._crit_edge.us.i ]
  %39 = getelementptr inbounds nuw i8, ptr %.us-phi.i, i64 8
  %40 = load ptr, ptr %39, align 8, !tbaa !26
  %41 = tail call i64 @lv_strlen(ptr noundef %40) #6
  %42 = udiv i64 %41, 3
  %43 = trunc i64 %42 to i16
  store i16 %43, ptr %4, align 2, !tbaa !28
  %44 = load ptr, ptr %39, align 8, !tbaa !26
  call void @llvm.lifetime.end.p0(i64 1, ptr nonnull %2)
  %45 = getelementptr inbounds nuw i8, ptr %0, i64 112
  store ptr %44, ptr %45, align 8, !tbaa !41
  %46 = icmp eq ptr %44, null
  br i1 %46, label %67, label %47

47:                                               ; preds = %pinyin_search_matching.exit
  %48 = getelementptr inbounds nuw i8, ptr %0, i64 154
  store i16 0, ptr %48, align 2, !tbaa !22
  br label %50

.preheader28:                                     ; preds = %50
  %49 = load i16, ptr %4, align 8, !tbaa !24
  %.not = icmp eq i16 %49, 0
  br i1 %.not, label %._crit_edge, label %.preheader

50:                                               ; preds = %47, %50
  %indvars.iv35 = phi i64 [ 0, %47 ], [ %indvars.iv.next36, %50 ]
  %51 = getelementptr inbounds nuw [6 x [4 x i8]], ptr @lv_pinyin_cand_str, i64 0, i64 %indvars.iv35
  tail call void @lv_memset(ptr noundef nonnull %51, i8 noundef zeroext 0, i64 noundef 4) #6
  store i8 32, ptr %51, align 4, !tbaa !8
  %indvars.iv.next36 = add nuw nsw i64 %indvars.iv35, 1
  %exitcond38.not = icmp eq i64 %indvars.iv.next36, 6
  br i1 %exitcond38.not, label %.preheader28, label %50, !llvm.loop !49

.preheader:                                       ; preds = %.preheader28, %55
  %indvars.iv44 = phi i64 [ %indvars.iv.next45, %55 ], [ 0, %.preheader28 ]
  %52 = mul nuw nsw i64 %indvars.iv44, 3
  br label %61

._crit_edge:                                      ; preds = %55, %.preheader28
  %53 = getelementptr inbounds nuw i8, ptr %0, i64 72
  %54 = load ptr, ptr %53, align 8, !tbaa !30
  tail call void @lv_obj_remove_flag(ptr noundef %54, i32 noundef 1) #6
  br label %67

55:                                               ; preds = %61
  %indvars.iv.next45 = add nuw nsw i64 %indvars.iv44, 1
  %56 = load i16, ptr %4, align 8, !tbaa !24
  %57 = trunc nuw nsw i64 %indvars.iv.next45 to i16
  %58 = icmp ugt i16 %56, %57
  %59 = icmp samesign ult i64 %indvars.iv44, 5
  %60 = and i1 %59, %58
  br i1 %60, label %.preheader, label %._crit_edge, !llvm.loop !50

61:                                               ; preds = %.preheader, %61
  %indvars.iv39 = phi i64 [ 0, %.preheader ], [ %indvars.iv.next40, %61 ]
  %62 = load ptr, ptr %45, align 8, !tbaa !41
  %63 = getelementptr inbounds nuw i8, ptr %62, i64 %indvars.iv39
  %64 = getelementptr inbounds nuw i8, ptr %63, i64 %52
  %65 = load i8, ptr %64, align 1, !tbaa !8
  %66 = getelementptr inbounds nuw [6 x [4 x i8]], ptr @lv_pinyin_cand_str, i64 0, i64 %indvars.iv44, i64 %indvars.iv39
  store i8 %65, ptr %66, align 1, !tbaa !8
  %indvars.iv.next40 = add nuw nsw i64 %indvars.iv39, 1
  %exitcond43.not = icmp eq i64 %indvars.iv.next40, 3
  br i1 %exitcond43.not, label %55, label %61, !llvm.loop !51

67:                                               ; preds = %pinyin_search_matching.exit.thread, %pinyin_search_matching.exit, %._crit_edge
  ret void
}